target datalayout = "e-m:e-p270:32:32-p271:32:32-p272:64:64-i64:64-i128:128-f80:128-n8:16:32:64-S128"
target triple = "x86_64-pc-linux-gnu"

%struct.pg_compress_specification = type { i32, i32, i32, i32, i8, ptr }
%struct.CompressFileHandle = type { ptr, ptr, ptr, ptr, ptr, ptr, ptr, ptr, ptr, %struct.pg_compress_specification, ptr }

; Function Attrs: nounwind uwtable
define internal void @free_keep_errno(ptr noundef %0) #0 {
  %2 = alloca ptr, align 8
  %3 = alloca i32, align 4
  store ptr %0, ptr %2, align 8
  call void @llvm.lifetime.start.p0(i64 4, ptr %3) #7
  %4 = call ptr @__errno_location() #9
  %5 = load i32, ptr %4, align 4
  store i32 %5, ptr %3, align 4
  %6 = load ptr, ptr %2, align 8
  call void @free(ptr noundef %6) #7
  %7 = load i32, ptr %3, align 4
  %8 = call ptr @__errno_location() #9
  store i32 %7, ptr %8, align 4
  call void @llvm.lifetime.end.p0(i64 4, ptr %3) #7
  ret void
}

; Function Attrs: nounwind uwtable
define dso_local zeroext i1 @EndCompressFileHandle(ptr noundef %0) #0 {
  %2 = alloca ptr, align 8
  %3 = alloca i8, align 1
  store ptr %0, ptr %2, align 8
  call void @llvm.lifetime.start.p0(i64 1, ptr %3) #7
  store i8 0, ptr %3, align 1
  %4 = load ptr, ptr %2, align 8
  %5 = getelementptr inbounds nuw %struct.CompressFileHandle, ptr %4, i32 0, i32 10
  %6 = load ptr, ptr %5, align 8
  %7 = icmp ne ptr %6, null
  br i1 %7, label %8, label %15

8:                                                ; preds = %1
  %9 = load ptr, ptr %2, align 8
  %10 = getelementptr inbounds nuw %struct.CompressFileHandle, ptr %9, i32 0, i32 7
  %11 = load ptr, ptr %10, align 8
  %12 = load ptr, ptr %2, align 8
  %13 = call zeroext i1 %11(ptr noundef %12)
  %14 = zext i1 %13 to i8
  store i8 %14, ptr %3, align 1
  br label %15

15:                                               ; preds = %8, %1
  %16 = load ptr, ptr %2, align 8
  call void @free_keep_errno(ptr noundef %16)
  %17 = load i8, ptr %3, align 1, !range !4, !noundef !5
  %18 = trunc i8 %17 to i1
  call void @llvm.lifetime.end.p0(i64 1, ptr %3) #7
  ret i1 %18
}