; Function Attrs: nounwind uwtable
define dso_local zeroext i1 @EndCompressFileHandle(ptr noundef %0) local_unnamed_addr #0 {
  %2 = getelementptr inbounds nuw i8, ptr %0, i64 104
  %3 = load ptr, ptr %2, align 8
  %.not = icmp eq ptr %3, null
  br i1 %.not, label %8, label %4

4:                                                ; preds = %1
  %5 = getelementptr inbounds nuw i8, ptr %0, i64 56
  %6 = load ptr, ptr %5, align 8
  %7 = tail call zeroext i1 %6(ptr noundef nonnull %0) #9
  br label %8

8:                                                ; preds = %4, %1
  %.0 = phi i1 [ %7, %4 ], [ false, %1 ]
  %9 = tail call ptr @__errno_location() #11
  %10 = load i32, ptr %9, align 4
  tail call void @free(ptr noundef nonnull %0) #9
  store i32 %10, ptr %9, align 4
  ret i1 %.0
}